(dp0
S'AN params'
p1
(cnumpy.core.multiarray
scalar
p2
(cnumpy
dtype
p3
(S'f8'
p4
I0
I1
tp5
Rp6
(I3
S'<'
p7
NNNI-1
I-1
I0
tp8
bS'\xbb\x87\xdb\xe0\xda\xd8\x0b@'
p9
tp10
Rp11
g2
(g6
S'\x1ar+W\x14\xbfR@'
p12
tp13
Rp14
g2
(g6
S'\xcb\x93pJ_\xc0\x01@'
p15
tp16
Rp17
g2
(g6
S'\x0c\x80\x05\xa6k\x18\xf6\xbf'
p18
tp19
Rp20
tp21
sS'DN params'
p22
(g2
(g6
S'\x93j\x86>,\x15$\xc0'
p23
tp24
Rp25
g2
(g6
S'\x89"\xaa:\x06\xa7\xcc?'
p26
tp27
Rp28
g2
(g6
S'4S\xaadB\x94\xd9?'
p29
tp30
Rp31
g2
(g6
S'\xea\x8e\xee\x1ef\xed6@'
p32
tp33
Rp34
tp35
sS'species'
p36
(dp37
S'DMC'
p38
(lp39
F17.2
aF18.0
aF0.0
aF3.1
aF6.31
asS'EMC'
p40
(lp41
F17.2
aF18.0
aF0.0
aF2.65
aF7.61
asS'EC'
p42
(lp43
F16.4
aF18.0
aF0.0
aF95.3
aF4.23
asS'Li'
p44
(lp45
F0.0
aF50.0
aF1.0
aF0.0
aF0.68
asS'headers'
p46
(lp47
S'dn'
p48
aS'an'
p49
aS'charge'
p50
aS'di'
p51
aS'ion_size'
p52
asS'PF6'
p53
(lp54
F2.18
aF0.0
aF-1.0
aF0.0
aF3.3
ass.